target datalayout = "e-m:e-p270:32:32-p271:32:32-p272:64:64-i64:64-i128:128-f80:128-n8:16:32:64-S128"
target triple = "x86_64-pc-linux-gnu"

%class.symbol = type { ptr }
%"class.datalog::tr_infrastructure<datalog::relation_traits>::plugin_object" = type { ptr, i32, %class.symbol, ptr }
%"class.datalog::relation_signature" = type { %"class.datalog::tr_infrastructure<datalog::relation_traits>::signature_base" }
%"class.datalog::tr_infrastructure<datalog::relation_traits>::signature_base" = type { %class.ptr_vector.31 }
%class.ptr_vector.31 = type { %class.vector.32 }
%class.vector.32 = type { ptr }
%"class.datalog::tr_infrastructure<datalog::relation_traits>::base_ancestor" = type <{ ptr, ptr, %"class.datalog::relation_signature", i32, [4 x i8] }>

@_ZTIN7datalog13relation_baseE = external constant ptr
@_ZTIN7datalog16product_relationE = hidden constant { ptr, ptr, ptr } { ptr getelementptr inbounds (ptr, ptr @_ZTVN10__cxxabiv120__si_class_type_infoE, i64 2), ptr @_ZTSN7datalog16product_relationE, ptr @_ZTIN7datalog13relation_baseE }, align 8
@.str.4 = private unnamed_addr constant [17 x i8] c"product_relation\00", align 1

; Function Attrs: mustprogress nounwind uwtable
define linkonce_odr hidden noundef zeroext i1 @_ZeqRK6symbolS1_(ptr noundef nonnull align 8 dereferenceable(8) %0, ptr noundef nonnull align 8 dereferenceable(8) %1) #6 comdat {
  %3 = alloca ptr, align 8
  %4 = alloca ptr, align 8
  store ptr %0, ptr %3, align 8, !tbaa !14
  store ptr %1, ptr %4, align 8, !tbaa !14
  %5 = load ptr, ptr %3, align 8, !tbaa !14
  %6 = getelementptr inbounds nuw %class.symbol, ptr %5, i32 0, i32 0
  %7 = load ptr, ptr %6, align 8, !tbaa !54
  %8 = load ptr, ptr %4, align 8, !tbaa !14
  %9 = getelementptr inbounds nuw %class.symbol, ptr %8, i32 0, i32 0
  %10 = load ptr, ptr %9, align 8, !tbaa !54
  %11 = icmp eq ptr %7, %10
  ret i1 %11
}

; Function Attrs: mustprogress uwtable
define linkonce_odr hidden ptr @_ZN7datalog23product_relation_plugin8get_nameEv() #4 comdat align 2 {
  %1 = alloca %class.symbol, align 8
  call void @_ZN6symbolC1EPKc(ptr noundef nonnull align 8 dereferenceable(8) %1, ptr noundef @.str.4)
  %2 = getelementptr inbounds nuw %class.symbol, ptr %1, i32 0, i32 0
  %3 = load ptr, ptr %2, align 8
  ret ptr %3
}

; Function Attrs: mustprogress nounwind uwtable
define linkonce_odr hidden noundef nonnull align 8 dereferenceable(8) ptr @_ZNK7datalog17tr_infrastructureINS_15relation_traitsEE13plugin_object8get_nameEv(ptr noundef nonnull align 8 dereferenceable(32) %0) #6 comdat align 2 {
  %2 = alloca ptr, align 8
  store ptr %0, ptr %2, align 8, !tbaa !27
  %3 = load ptr, ptr %2, align 8
  %4 = getelementptr inbounds nuw %"class.datalog::tr_infrastructure<datalog::relation_traits>::plugin_object", ptr %3, i32 0, i32 2
  ret ptr %4
}

; Function Attrs: mustprogress nounwind uwtable
define linkonce_odr hidden noundef nonnull align 8 dereferenceable(36) ptr @_ZNK7datalog17tr_infrastructureINS_15relation_traitsEE13base_ancestor10get_pluginEv(ptr noundef nonnull align 8 dereferenceable(28) %0) #6 comdat align 2 {
  %2 = alloca ptr, align 8
  store ptr %0, ptr %2, align 8, !tbaa !50
  %3 = load ptr, ptr %2, align 8
  %4 = getelementptr inbounds nuw %"class.datalog::tr_infrastructure<datalog::relation_traits>::base_ancestor", ptr %3, i32 0, i32 1
  %5 = load ptr, ptr %4, align 8, !tbaa !55
  ret ptr %5
}

; Function Attrs: mustprogress nounwind uwtable
define linkonce_odr hidden noundef i32 @_ZNK7datalog17tr_infrastructureINS_15relation_traitsEE13base_ancestor8get_kindEv(ptr noundef nonnull align 8 dereferenceable(28) %0) #6 comdat align 2 {
  %2 = alloca ptr, align 8
  store ptr %0, ptr %2, align 8, !tbaa !50
  %3 = load ptr, ptr %2, align 8
  %4 = getelementptr inbounds nuw %"class.datalog::tr_infrastructure<datalog::relation_traits>::base_ancestor", ptr %3, i32 0, i32 3
  %5 = load i32, ptr %4, align 8, !tbaa !59
  ret i32 %5
}

; Function Attrs: mustprogress uwtable
define hidden noundef nonnull align 8 dereferenceable(48) ptr @_ZN7datalog23product_relation_plugin3getERKNS_13relation_baseE(ptr noundef nonnull align 8 dereferenceable(28) %0) #4 align 2 {
  %2 = alloca ptr, align 8
  store ptr %0, ptr %2, align 8, !tbaa !52
  %3 = load ptr, ptr %2, align 8, !tbaa !52
  %4 = call ptr @__dynamic_cast(ptr %3, ptr @_ZTIN7datalog13relation_baseE, ptr @_ZTIN7datalog16product_relationE, i64 0) #3
  %5 = icmp eq ptr %4, null
  br i1 %5, label %6, label %7

6:                                                ; preds = %1
  call void @__cxa_bad_cast() #23
  unreachable

7:                                                ; preds = %1
  ret ptr %4
}

; Function Attrs: mustprogress uwtable
define hidden noundef zeroext i1 @_ZN7datalog23product_relation_plugin19is_product_relationERKNS_13relation_baseE(ptr noundef nonnull align 8 dereferenceable(28) %0) #4 align 2 {
  %2 = alloca ptr, align 8
  %3 = alloca %class.symbol, align 8
  store ptr %0, ptr %2, align 8, !tbaa !52
  %4 = load ptr, ptr %2, align 8, !tbaa !52
  %5 = call noundef nonnull align 8 dereferenceable(36) ptr @_ZNK7datalog17tr_infrastructureINS_15relation_traitsEE13base_ancestor10get_pluginEv(ptr noundef nonnull align 8 dereferenceable(28) %4)
  %6 = call noundef nonnull align 8 dereferenceable(8) ptr @_ZNK7datalog17tr_infrastructureINS_15relation_traitsEE13plugin_object8get_nameEv(ptr noundef nonnull align 8 dereferenceable(32) %5)
  call void @llvm.lifetime.start.p0(i64 8, ptr %3) #3
  %7 = call ptr @_ZN7datalog23product_relation_plugin8get_nameEv()
  %8 = getelementptr inbounds nuw %class.symbol, ptr %3, i32 0, i32 0
  store ptr %7, ptr %8, align 8
  %9 = call noundef zeroext i1 @_ZeqRK6symbolS1_(ptr noundef nonnull align 8 dereferenceable(8) %6, ptr noundef nonnull align 8 dereferenceable(8) %3)
  call void @llvm.lifetime.end.p0(i64 8, ptr %3) #3
  ret i1 %9
}

; Function Attrs: mustprogress uwtable
define hidden noundef ptr @_ZN7datalog23product_relation_plugin10mk_join_fnERKNS_13relation_baseES3_jPKjS5_(ptr noundef nonnull align 8 dereferenceable(104) %0, ptr noundef nonnull align 8 dereferenceable(28) %1, ptr noundef nonnull align 8 dereferenceable(28) %2, i32 noundef %3, ptr noundef %4, ptr noundef %5) unnamed_addr #4 align 2 {
  %7 = alloca ptr, align 8
  %8 = alloca ptr, align 8
  %9 = alloca ptr, align 8
  %10 = alloca ptr, align 8
  %11 = alloca i32, align 4
  %12 = alloca ptr, align 8
  %13 = alloca ptr, align 8
  store ptr %0, ptr %8, align 8, !tbaa !8
  store ptr %1, ptr %9, align 8, !tbaa !52
  store ptr %2, ptr %10, align 8, !tbaa !52
  store i32 %3, ptr %11, align 4, !tbaa !26
  store ptr %4, ptr %12, align 8, !tbaa !77
  store ptr %5, ptr %13, align 8, !tbaa !77
  %14 = load ptr, ptr %8, align 8
  %15 = load ptr, ptr %9, align 8, !tbaa !52
  %16 = call noundef zeroext i1 @_ZN7datalog23product_relation_plugin19is_product_relationERKNS_13relation_baseE(ptr noundef nonnull align 8 dereferenceable(28) %15)
  br i1 %16, label %17, label %29

17:                                               ; preds = %6
  %18 = load ptr, ptr %10, align 8, !tbaa !52
  %19 = call noundef zeroext i1 @_ZN7datalog23product_relation_plugin19is_product_relationERKNS_13relation_baseE(ptr noundef nonnull align 8 dereferenceable(28) %18)
  br i1 %19, label %20, label %29

20:                                               ; preds = %17
  %21 = call noalias noundef ptr @_ZN6memory8allocateEm(i64 noundef 88)
  %22 = load ptr, ptr %9, align 8, !tbaa !52
  %23 = call noundef nonnull align 8 dereferenceable(48) ptr @_ZN7datalog23product_relation_plugin3getERKNS_13relation_baseE(ptr noundef nonnull align 8 dereferenceable(28) %22)
  %24 = load ptr, ptr %10, align 8, !tbaa !52
  %25 = call noundef nonnull align 8 dereferenceable(48) ptr @_ZN7datalog23product_relation_plugin3getERKNS_13relation_baseE(ptr noundef nonnull align 8 dereferenceable(28) %24)
  %26 = load i32, ptr %11, align 4, !tbaa !26
  %27 = load ptr, ptr %12, align 8, !tbaa !77
  %28 = load ptr, ptr %13, align 8, !tbaa !77
  call void @_ZN7datalog23product_relation_plugin7join_fnC2ERS0_RKNS_16product_relationES5_jPKjS7_(ptr noundef nonnull align 8 dereferenceable(88) %21, ptr noundef nonnull align 8 dereferenceable(104) %14, ptr noundef nonnull align 8 dereferenceable(48) %23, ptr noundef nonnull align 8 dereferenceable(48) %25, i32 noundef %26, ptr noundef %27, ptr noundef %28)
  store ptr %21, ptr %7, align 8
  br label %65

29:                                               ; preds = %17, %6
  %30 = load ptr, ptr %9, align 8, !tbaa !52
  %31 = call noundef zeroext i1 @_ZN7datalog23product_relation_plugin19is_product_relationERKNS_13relation_baseE(ptr noundef nonnull align 8 dereferenceable(28) %30)
  br i1 %31, label %32, label %40

32:                                               ; preds = %29
  %33 = call noalias noundef ptr @_ZN6memory8allocateEm(i64 noundef 88)
  %34 = load ptr, ptr %9, align 8, !tbaa !52
  %35 = call noundef nonnull align 8 dereferenceable(48) ptr @_ZN7datalog23product_relation_plugin3getERKNS_13relation_baseE(ptr noundef nonnull align 8 dereferenceable(28) %34)
  %36 = load ptr, ptr %10, align 8, !tbaa !52
  %37 = load i32, ptr %11, align 4, !tbaa !26
  %38 = load ptr, ptr %12, align 8, !tbaa !77
  %39 = load ptr, ptr %13, align 8, !tbaa !77
  call void @_ZN7datalog23product_relation_plugin7join_fnC2ERS0_RKNS_16product_relationERKNS_13relation_baseEjPKjSA_(ptr noundef nonnull align 8 dereferenceable(88) %33, ptr noundef nonnull align 8 dereferenceable(104) %14, ptr noundef nonnull align 8 dereferenceable(48) %35, ptr noundef nonnull align 8 dereferenceable(28) %36, i32 noundef %37, ptr noundef %38, ptr noundef %39)
  store ptr %33, ptr %7, align 8
  br label %65

40:                                               ; preds = %29
  %41 = load ptr, ptr %10, align 8, !tbaa !52
  %42 = call noundef zeroext i1 @_ZN7datalog23product_relation_plugin19is_product_relationERKNS_13relation_baseE(ptr noundef nonnull align 8 dereferenceable(28) %41)
  br i1 %42, label %43, label %51

43:                                               ; preds = %40
  %44 = call noalias noundef ptr @_ZN6memory8allocateEm(i64 noundef 88)
  %45 = load ptr, ptr %9, align 8, !tbaa !52
  %46 = load ptr, ptr %10, align 8, !tbaa !52
  %47 = call noundef nonnull align 8 dereferenceable(48) ptr @_ZN7datalog23product_relation_plugin3getERKNS_13relation_baseE(ptr noundef nonnull align 8 dereferenceable(28) %46)
  %48 = load i32, ptr %11, align 4, !tbaa !26
  %49 = load ptr, ptr %12, align 8, !tbaa !77
  %50 = load ptr, ptr %13, align 8, !tbaa !77
  call void @_ZN7datalog23product_relation_plugin7join_fnC2ERS0_RKNS_13relation_baseERKNS_16product_relationEjPKjSA_(ptr noundef nonnull align 8 dereferenceable(88) %44, ptr noundef nonnull align 8 dereferenceable(104) %14, ptr noundef nonnull align 8 dereferenceable(28) %45, ptr noundef nonnull align 8 dereferenceable(48) %47, i32 noundef %48, ptr noundef %49, ptr noundef %50)
  store ptr %44, ptr %7, align 8
  br label %65

51:                                               ; preds = %40
  %52 = load ptr, ptr %9, align 8, !tbaa !52
  %53 = call noundef i32 @_ZNK7datalog17tr_infrastructureINS_15relation_traitsEE13base_ancestor8get_kindEv(ptr noundef nonnull align 8 dereferenceable(28) %52)
  %54 = load ptr, ptr %10, align 8, !tbaa !52
  %55 = call noundef i32 @_ZNK7datalog17tr_infrastructureINS_15relation_traitsEE13base_ancestor8get_kindEv(ptr noundef nonnull align 8 dereferenceable(28) %54)
  %56 = icmp ne i32 %53, %55
  br i1 %56, label %57, label %64

57:                                               ; preds = %51
  %58 = call noalias noundef ptr @_ZN6memory8allocateEm(i64 noundef 88)
  %59 = load ptr, ptr %9, align 8, !tbaa !52
  %60 = load ptr, ptr %10, align 8, !tbaa !52
  %61 = load i32, ptr %11, align 4, !tbaa !26
  %62 = load ptr, ptr %12, align 8, !tbaa !77
  %63 = load ptr, ptr %13, align 8, !tbaa !77
  call void @_ZN7datalog23product_relation_plugin7join_fnC2ERS0_RKNS_13relation_baseES5_jPKjS7_(ptr noundef nonnull align 8 dereferenceable(88) %58, ptr noundef nonnull align 8 dereferenceable(104) %14, ptr noundef nonnull align 8 dereferenceable(28) %59, ptr noundef nonnull align 8 dereferenceable(28) %60, i32 noundef %61, ptr noundef %62, ptr noundef %63)
  store ptr %58, ptr %7, align 8
  br label %65

64:                                               ; preds = %51
  store ptr null, ptr %7, align 8
  br label %65

65:                                               ; preds = %64, %57, %43, %32, %20
  %66 = load ptr, ptr %7, align 8
  ret ptr %66
}