; Function Attrs: mustprogress uwtable
define hidden noundef ptr @_ZN7datalog23product_relation_plugin10mk_join_fnERKNS_13relation_baseES3_jPKjS5_(ptr noundef nonnull align 8 dereferenceable(104) %0, ptr noundef nonnull align 8 dereferenceable(28) %1, ptr noundef nonnull align 8 dereferenceable(28) %2, i32 noundef %3, ptr noundef %4, ptr noundef %5) unnamed_addr #3 align 2 {
  %7 = alloca %class.symbol, align 8
  %8 = alloca %class.symbol, align 8
  %9 = alloca %class.symbol, align 8
  %10 = alloca %class.symbol, align 8
  %11 = getelementptr inbounds nuw i8, ptr %1, i64 8
  %12 = load ptr, ptr %11, align 8, !tbaa !86
  %13 = getelementptr inbounds nuw i8, ptr %12, i64 16
  call void @llvm.lifetime.start.p0(i64 8, ptr nonnull %10)
  call void @_ZN6symbolC1EPKc(ptr noundef nonnull align 8 dereferenceable(8) %10, ptr noundef nonnull @.str.4)
  %14 = load ptr, ptr %10, align 8
  call void @llvm.lifetime.end.p0(i64 8, ptr nonnull %10)
  %15 = load ptr, ptr %13, align 8, !tbaa !88
  %16 = icmp eq ptr %15, %14
  br i1 %16, label %17, label %32

17:                                               ; preds = %6
  %18 = getelementptr inbounds nuw i8, ptr %2, i64 8
  %19 = load ptr, ptr %18, align 8, !tbaa !86
  %20 = getelementptr inbounds nuw i8, ptr %19, i64 16
  call void @llvm.lifetime.start.p0(i64 8, ptr nonnull %9)
  call void @_ZN6symbolC1EPKc(ptr noundef nonnull align 8 dereferenceable(8) %9, ptr noundef nonnull @.str.4)
  %21 = load ptr, ptr %9, align 8
  call void @llvm.lifetime.end.p0(i64 8, ptr nonnull %9)
  %22 = load ptr, ptr %20, align 8, !tbaa !88
  %23 = icmp eq ptr %22, %21
  br i1 %23, label %24, label %32

24:                                               ; preds = %17
  %25 = call noalias noundef ptr @_ZN6memory8allocateEm(i64 noundef 88)
  %26 = call ptr @__dynamic_cast(ptr nonnull readonly align 8 dereferenceable(28) %1, ptr nonnull @_ZTIN7datalog13relation_baseE, ptr nonnull @_ZTIN7datalog16product_relationE, i64 0) #26
  %27 = icmp eq ptr %26, null
  br i1 %27, label %28, label %_ZN7datalog23product_relation_plugin3getERKNS_13relation_baseE.exit

28:                                               ; preds = %24
  call void @__cxa_bad_cast() #27
  unreachable

_ZN7datalog23product_relation_plugin3getERKNS_13relation_baseE.exit: ; preds = %24
  %29 = call ptr @__dynamic_cast(ptr nonnull readonly align 8 dereferenceable(28) %2, ptr nonnull @_ZTIN7datalog13relation_baseE, ptr nonnull @_ZTIN7datalog16product_relationE, i64 0) #26
  %30 = icmp eq ptr %29, null
  br i1 %30, label %31, label %_ZN7datalog23product_relation_plugin3getERKNS_13relation_baseE.exit27

31:                                               ; preds = %_ZN7datalog23product_relation_plugin3getERKNS_13relation_baseE.exit
  call void @__cxa_bad_cast() #27
  unreachable

_ZN7datalog23product_relation_plugin3getERKNS_13relation_baseE.exit27: ; preds = %_ZN7datalog23product_relation_plugin3getERKNS_13relation_baseE.exit
  call void @_ZN7datalog23product_relation_plugin7join_fnC2ERS0_RKNS_16product_relationES5_jPKjS7_(ptr noundef nonnull align 8 dereferenceable(88) %25, ptr noundef nonnull align 8 dereferenceable(104) %0, ptr noundef nonnull align 8 dereferenceable(48) %26, ptr noundef nonnull align 8 dereferenceable(48) %29, i32 noundef %3, ptr noundef %4, ptr noundef %5)
  br label %62

32:                                               ; preds = %17, %6
  %33 = load ptr, ptr %11, align 8, !tbaa !86
  %34 = getelementptr inbounds nuw i8, ptr %33, i64 16
  call void @llvm.lifetime.start.p0(i64 8, ptr nonnull %8)
  call void @_ZN6symbolC1EPKc(ptr noundef nonnull align 8 dereferenceable(8) %8, ptr noundef nonnull @.str.4)
  %35 = load ptr, ptr %8, align 8
  call void @llvm.lifetime.end.p0(i64 8, ptr nonnull %8)
  %36 = load ptr, ptr %34, align 8, !tbaa !88
  %37 = icmp eq ptr %36, %35
  br i1 %37, label %38, label %43

38:                                               ; preds = %32
  %39 = call noalias noundef ptr @_ZN6memory8allocateEm(i64 noundef 88)
  %40 = call ptr @__dynamic_cast(ptr nonnull readonly align 8 dereferenceable(28) %1, ptr nonnull @_ZTIN7datalog13relation_baseE, ptr nonnull @_ZTIN7datalog16product_relationE, i64 0) #26
  %41 = icmp eq ptr %40, null
  br i1 %41, label %42, label %_ZN7datalog23product_relation_plugin3getERKNS_13relation_baseE.exit28

42:                                               ; preds = %38
  call void @__cxa_bad_cast() #27
  unreachable

_ZN7datalog23product_relation_plugin3getERKNS_13relation_baseE.exit28: ; preds = %38
  call void @_ZN7datalog23product_relation_plugin7join_fnC2ERS0_RKNS_16product_relationERKNS_13relation_baseEjPKjSA_(ptr noundef nonnull align 8 dereferenceable(88) %39, ptr noundef nonnull align 8 dereferenceable(104) %0, ptr noundef nonnull align 8 dereferenceable(48) %40, ptr noundef nonnull align 8 dereferenceable(28) %2, i32 noundef %3, ptr noundef %4, ptr noundef %5)
  br label %62

43:                                               ; preds = %32
  %44 = getelementptr inbounds nuw i8, ptr %2, i64 8
  %45 = load ptr, ptr %44, align 8, !tbaa !86
  %46 = getelementptr inbounds nuw i8, ptr %45, i64 16
  call void @llvm.lifetime.start.p0(i64 8, ptr nonnull %7)
  call void @_ZN6symbolC1EPKc(ptr noundef nonnull align 8 dereferenceable(8) %7, ptr noundef nonnull @.str.4)
  %47 = load ptr, ptr %7, align 8
  call void @llvm.lifetime.end.p0(i64 8, ptr nonnull %7)
  %48 = load ptr, ptr %46, align 8, !tbaa !88
  %49 = icmp eq ptr %48, %47
  br i1 %49, label %50, label %55

50:                                               ; preds = %43
  %51 = call noalias noundef ptr @_ZN6memory8allocateEm(i64 noundef 88)
  %52 = call ptr @__dynamic_cast(ptr nonnull readonly align 8 dereferenceable(28) %2, ptr nonnull @_ZTIN7datalog13relation_baseE, ptr nonnull @_ZTIN7datalog16product_relationE, i64 0) #26
  %53 = icmp eq ptr %52, null
  br i1 %53, label %54, label %_ZN7datalog23product_relation_plugin3getERKNS_13relation_baseE.exit29

54:                                               ; preds = %50
  call void @__cxa_bad_cast() #27
  unreachable

_ZN7datalog23product_relation_plugin3getERKNS_13relation_baseE.exit29: ; preds = %50
  call void @_ZN7datalog23product_relation_plugin7join_fnC2ERS0_RKNS_13relation_baseERKNS_16product_relationEjPKjSA_(ptr noundef nonnull align 8 dereferenceable(88) %51, ptr noundef nonnull align 8 dereferenceable(104) %0, ptr noundef nonnull align 8 dereferenceable(28) %1, ptr noundef nonnull align 8 dereferenceable(48) %52, i32 noundef %3, ptr noundef %4, ptr noundef %5)
  br label %62

55:                                               ; preds = %43
  %56 = getelementptr inbounds nuw i8, ptr %1, i64 24
  %57 = load i32, ptr %56, align 8, !tbaa !94
  %58 = getelementptr inbounds nuw i8, ptr %2, i64 24
  %59 = load i32, ptr %58, align 8, !tbaa !94
  %.not = icmp eq i32 %57, %59
  br i1 %.not, label %62, label %60

60:                                               ; preds = %55
  %61 = call noalias noundef ptr @_ZN6memory8allocateEm(i64 noundef 88)
  call void @_ZN7datalog23product_relation_plugin7join_fnC2ERS0_RKNS_13relation_baseES5_jPKjS7_(ptr noundef nonnull align 8 dereferenceable(88) %61, ptr noundef nonnull align 8 dereferenceable(104) %0, ptr noundef nonnull align 8 dereferenceable(28) %1, ptr noundef nonnull align 8 dereferenceable(28) %2, i32 noundef %3, ptr noundef %4, ptr noundef %5)
  br label %62

62:                                               ; preds = %55, %60, %_ZN7datalog23product_relation_plugin3getERKNS_13relation_baseE.exit29, %_ZN7datalog23product_relation_plugin3getERKNS_13relation_baseE.exit28, %_ZN7datalog23product_relation_plugin3getERKNS_13relation_baseE.exit27
  %.0 = phi ptr [ %25, %_ZN7datalog23product_relation_plugin3getERKNS_13relation_baseE.exit27 ], [ %39, %_ZN7datalog23product_relation_plugin3getERKNS_13relation_baseE.exit28 ], [ %51, %_ZN7datalog23product_relation_plugin3getERKNS_13relation_baseE.exit29 ], [ %61, %60 ], [ null, %55 ]
  ret ptr %.0
}